target datalayout = "e-m:e-p270:32:32-p271:32:32-p272:64:64-i64:64-i128:128-f80:128-n8:16:32:64-S128"
target triple = "x86_64-pc-linux-gnu"

%struct._generic_SUNAdaptController = type { ptr, ptr, ptr }
%struct._SUNAdaptControllerContent_Soderlind = type { double, double, double, double, double, double, double, double, double, double, i32 }

; Function Attrs: nounwind uwtable
define i32 @SUNAdaptController_UpdateH_Soderlind(ptr noundef %0, double noundef %1, double noundef %2) #0 {
  %4 = alloca ptr, align 8
  %5 = alloca double, align 8
  %6 = alloca double, align 8
  %7 = alloca ptr, align 8
  store ptr %0, ptr %4, align 8, !tbaa !8
  store double %1, ptr %5, align 8, !tbaa !25
  store double %2, ptr %6, align 8, !tbaa !25
  call void @llvm.lifetime.start.p0(i64 8, ptr %7) #5
  %8 = load ptr, ptr %4, align 8, !tbaa !8
  %9 = getelementptr inbounds nuw %struct._generic_SUNAdaptController, ptr %8, i32 0, i32 2
  %10 = load ptr, ptr %9, align 8, !tbaa !31
  store ptr %10, ptr %7, align 8, !tbaa !3
  %11 = load ptr, ptr %4, align 8, !tbaa !8
  %12 = getelementptr inbounds nuw %struct._generic_SUNAdaptController, ptr %11, i32 0, i32 0
  %13 = load ptr, ptr %12, align 8, !tbaa !24
  %14 = getelementptr inbounds nuw %struct._SUNAdaptControllerContent_Soderlind, ptr %13, i32 0, i32 6
  %15 = load double, ptr %14, align 8, !tbaa !39
  %16 = load ptr, ptr %4, align 8, !tbaa !8
  %17 = getelementptr inbounds nuw %struct._generic_SUNAdaptController, ptr %16, i32 0, i32 0
  %18 = load ptr, ptr %17, align 8, !tbaa !24
  %19 = getelementptr inbounds nuw %struct._SUNAdaptControllerContent_Soderlind, ptr %18, i32 0, i32 7
  store double %15, ptr %19, align 8, !tbaa !40
  %20 = load ptr, ptr %4, align 8, !tbaa !8
  %21 = getelementptr inbounds nuw %struct._generic_SUNAdaptController, ptr %20, i32 0, i32 0
  %22 = load ptr, ptr %21, align 8, !tbaa !24
  %23 = getelementptr inbounds nuw %struct._SUNAdaptControllerContent_Soderlind, ptr %22, i32 0, i32 5
  %24 = load double, ptr %23, align 8, !tbaa !38
  %25 = load double, ptr %6, align 8, !tbaa !25
  %26 = fmul double %24, %25
  %27 = load ptr, ptr %4, align 8, !tbaa !8
  %28 = getelementptr inbounds nuw %struct._generic_SUNAdaptController, ptr %27, i32 0, i32 0
  %29 = load ptr, ptr %28, align 8, !tbaa !24
  %30 = getelementptr inbounds nuw %struct._SUNAdaptControllerContent_Soderlind, ptr %29, i32 0, i32 6
  store double %26, ptr %30, align 8, !tbaa !39
  %31 = load ptr, ptr %4, align 8, !tbaa !8
  %32 = getelementptr inbounds nuw %struct._generic_SUNAdaptController, ptr %31, i32 0, i32 0
  %33 = load ptr, ptr %32, align 8, !tbaa !24
  %34 = getelementptr inbounds nuw %struct._SUNAdaptControllerContent_Soderlind, ptr %33, i32 0, i32 8
  %35 = load double, ptr %34, align 8, !tbaa !41
  %36 = load ptr, ptr %4, align 8, !tbaa !8
  %37 = getelementptr inbounds nuw %struct._generic_SUNAdaptController, ptr %36, i32 0, i32 0
  %38 = load ptr, ptr %37, align 8, !tbaa !24
  %39 = getelementptr inbounds nuw %struct._SUNAdaptControllerContent_Soderlind, ptr %38, i32 0, i32 9
  store double %35, ptr %39, align 8, !tbaa !42
  %40 = load double, ptr %5, align 8, !tbaa !25
  %41 = load ptr, ptr %4, align 8, !tbaa !8
  %42 = getelementptr inbounds nuw %struct._generic_SUNAdaptController, ptr %41, i32 0, i32 0
  %43 = load ptr, ptr %42, align 8, !tbaa !24
  %44 = getelementptr inbounds nuw %struct._SUNAdaptControllerContent_Soderlind, ptr %43, i32 0, i32 8
  store double %40, ptr %44, align 8, !tbaa !41
  %45 = load ptr, ptr %4, align 8, !tbaa !8
  %46 = getelementptr inbounds nuw %struct._generic_SUNAdaptController, ptr %45, i32 0, i32 0
  %47 = load ptr, ptr %46, align 8, !tbaa !24
  %48 = getelementptr inbounds nuw %struct._SUNAdaptControllerContent_Soderlind, ptr %47, i32 0, i32 10
  %49 = load i32, ptr %48, align 8, !tbaa !43
  %50 = icmp slt i32 %49, 2
  br i1 %50, label %51, label %58

51:                                               ; preds = %3
  %52 = load ptr, ptr %4, align 8, !tbaa !8
  %53 = getelementptr inbounds nuw %struct._generic_SUNAdaptController, ptr %52, i32 0, i32 0
  %54 = load ptr, ptr %53, align 8, !tbaa !24
  %55 = getelementptr inbounds nuw %struct._SUNAdaptControllerContent_Soderlind, ptr %54, i32 0, i32 10
  %56 = load i32, ptr %55, align 8, !tbaa !43
  %57 = add nsw i32 %56, 1
  store i32 %57, ptr %55, align 8, !tbaa !43
  br label %58

58:                                               ; preds = %51, %3
  call void @llvm.lifetime.end.p0(i64 8, ptr %7) #5
  ret i32 0
}