; Function Attrs: mustprogress nofree norecurse nosync nounwind willreturn memory(readwrite, inaccessiblemem: none) uwtable
define noundef i32 @SUNAdaptController_UpdateH_Soderlind(ptr noundef readonly captures(none) %0, double noundef %1, double noundef %2) #5 {
  %4 = load ptr, ptr %0, align 8, !tbaa !19
  %5 = getelementptr inbounds nuw i8, ptr %4, i64 48
  %6 = load double, ptr %5, align 8, !tbaa !29
  %7 = getelementptr inbounds nuw i8, ptr %4, i64 56
  store double %6, ptr %7, align 8, !tbaa !30
  %8 = getelementptr inbounds nuw i8, ptr %4, i64 40
  %9 = load double, ptr %8, align 8, !tbaa !28
  %10 = fmul double %2, %9
  store double %10, ptr %5, align 8, !tbaa !29
  %11 = getelementptr inbounds nuw i8, ptr %4, i64 64
  %12 = load double, ptr %11, align 8, !tbaa !31
  %13 = getelementptr inbounds nuw i8, ptr %4, i64 72
  store double %12, ptr %13, align 8, !tbaa !32
  store double %1, ptr %11, align 8, !tbaa !31
  %14 = getelementptr inbounds nuw i8, ptr %4, i64 80
  %15 = load i32, ptr %14, align 8, !tbaa !33
  %16 = icmp slt i32 %15, 2
  br i1 %16, label %17, label %19

17:                                               ; preds = %3
  %18 = add nsw i32 %15, 1
  store i32 %18, ptr %14, align 8, !tbaa !33
  br label %19

19:                                               ; preds = %17, %3
  ret i32 0
}